; Function Attrs: mustprogress nofree norecurse nosync nounwind willreturn memory(argmem: read) uwtable
define range(i32 0, 2) i32 @wolfSSL_has_pending(ptr noundef readonly captures(address_is_null) %0) local_unnamed_addr #9 {
  %2 = icmp eq ptr %0, null
  br i1 %2, label %8, label %3

3:                                                ; preds = %1
  %4 = getelementptr inbounds nuw i8, ptr %0, i64 440
  %5 = load i32, ptr %4, align 8, !tbaa !160
  %6 = icmp ne i32 %5, 0
  %7 = zext i1 %6 to i32
  br label %8

8:                                                ; preds = %1, %3
  %.0 = phi i32 [ %7, %3 ], [ 0, %1 ]
  ret i32 %.0
}